target datalayout = "e-m:e-p270:32:32-p271:32:32-p272:64:64-i64:64-i128:128-f80:128-n8:16:32:64-S128"
target triple = "x86_64-pc-linux-gnu"

%struct.CTS128_FIXTURE = type { ptr, ptr, ptr, ptr, ptr, ptr }
%struct.SIZED_DATA = type { i64, ptr }
%struct.aes_key_st = type { [60 x i32], i32 }

@cts128_test_iv = internal constant [16 x i8] zeroinitializer, align 16
@cts128_test_input = internal constant [64 x i8] c"I would like the General Gau's Chicken, please, and wonton soup.", align 16
@.str.4 = private unnamed_addr constant [38 x i8] c"../openssl/test/modes_internal_test.c\00", align 1
@.str.5 = private unnamed_addr constant [14 x i8] c"%s_vector_%lu\00", align 1
@.str.6 = private unnamed_addr constant [103 x i8] c"fixture->encrypt_block(test_input, ciphertext, len, encrypt_key_schedule, iv, (block128_f)AES_encrypt)\00", align 1
@.str.7 = private unnamed_addr constant [4 x i8] c"len\00", align 1
@.str.8 = private unnamed_addr constant [11 x i8] c"ciphertext\00", align 1
@.str.9 = private unnamed_addr constant [7 x i8] c"vector\00", align 1
@.str.10 = private unnamed_addr constant [3 x i8] c"iv\00", align 1
@.str.11 = private unnamed_addr constant [20 x i8] c"vector + len - tail\00", align 1
@.str.12 = private unnamed_addr constant [32 x i8] c"len == size || len + 16 == size\00", align 1
@.str.13 = private unnamed_addr constant [10 x i8] c"cleartext\00", align 1
@.str.14 = private unnamed_addr constant [11 x i8] c"test_input\00", align 1
@.str.15 = private unnamed_addr constant [107 x i8] c"fixture->encrypt_stream(test_input, ciphertext, len, encrypt_key_schedule, iv, (cbc128_f) AES_cbc_encrypt)\00", align 1
@.str.16 = private unnamed_addr constant [105 x i8] c"fixture->decrypt_stream(ciphertext, cleartext, len, decrypt_key_schedule, iv, (cbc128_f)AES_cbc_encrypt)\00", align 1
@cts128_encrypt_key_schedule.init_key = internal global i32 1, align 4
@cts128_encrypt_key_schedule.ks = internal global %struct.aes_key_st zeroinitializer, align 4
@cts128_test_key = internal constant [16 x i8] c"chicken teriyaki", align 16
@cts128_decrypt_key_schedule.init_key = internal global i32 1, align 4
@cts128_decrypt_key_schedule.ks = internal global %struct.aes_key_st zeroinitializer, align 4

; Function Attrs: nounwind uwtable
define internal ptr @cts128_decrypt_key_schedule() #0 {
  %1 = load i32, ptr @cts128_decrypt_key_schedule.init_key, align 4, !tbaa !4
  %2 = icmp ne i32 %1, 0
  br i1 %2, label %3, label %5

3:                                                ; preds = %0
  %4 = call i32 @AES_set_decrypt_key(ptr noundef @cts128_test_key, i32 noundef 128, ptr noundef @cts128_decrypt_key_schedule.ks)
  store i32 0, ptr @cts128_decrypt_key_schedule.init_key, align 4, !tbaa !4
  br label %5

5:                                                ; preds = %3, %0
  ret ptr @cts128_decrypt_key_schedule.ks
}

; Function Attrs: nounwind uwtable
define internal ptr @cts128_encrypt_key_schedule() #0 {
  %1 = load i32, ptr @cts128_encrypt_key_schedule.init_key, align 4, !tbaa !4
  %2 = icmp ne i32 %1, 0
  br i1 %2, label %3, label %5

3:                                                ; preds = %0
  %4 = call i32 @AES_set_encrypt_key(ptr noundef @cts128_test_key, i32 noundef 128, ptr noundef @cts128_encrypt_key_schedule.ks)
  store i32 0, ptr @cts128_encrypt_key_schedule.init_key, align 4, !tbaa !4
  br label %5

5:                                                ; preds = %3, %0
  ret ptr @cts128_encrypt_key_schedule.ks
}

; Function Attrs: nounwind uwtable
define internal i32 @execute_cts128(ptr noundef %0, i32 noundef %1) #0 {
  %3 = alloca i32, align 4
  %4 = alloca ptr, align 8
  %5 = alloca i32, align 4
  %6 = alloca ptr, align 8
  %7 = alloca i64, align 8
  %8 = alloca ptr, align 8
  %9 = alloca i64, align 8
  %10 = alloca ptr, align 8
  %11 = alloca ptr, align 8
  %12 = alloca ptr, align 8
  %13 = alloca [16 x i8], align 16
  %14 = alloca [64 x i8], align 16
  %15 = alloca [64 x i8], align 16
  %16 = alloca [64 x i8], align 16
  %17 = alloca i64, align 8
  %18 = alloca i64, align 8
  %19 = alloca i32, align 4
  store ptr %0, ptr %4, align 8, !tbaa !17
  store i32 %1, ptr %5, align 4, !tbaa !4
  call void @llvm.lifetime.start.p0(i64 8, ptr %6) #5
  store ptr @cts128_test_iv, ptr %6, align 8, !tbaa !11
  call void @llvm.lifetime.start.p0(i64 8, ptr %7) #5
  store i64 16, ptr %7, align 8, !tbaa !9
  call void @llvm.lifetime.start.p0(i64 8, ptr %8) #5
  %20 = load i32, ptr %5, align 4, !tbaa !4
  %21 = sext i32 %20 to i64
  %22 = getelementptr inbounds [6 x %struct.SIZED_DATA], ptr @aes_cts128_vectors, i64 0, i64 %21
  %23 = getelementptr inbounds nuw %struct.SIZED_DATA, ptr %22, i32 0, i32 1
  %24 = load ptr, ptr %23, align 8, !tbaa !16
  store ptr %24, ptr %8, align 8, !tbaa !11
  call void @llvm.lifetime.start.p0(i64 8, ptr %9) #5
  %25 = load i32, ptr %5, align 4, !tbaa !4
  %26 = sext i32 %25 to i64
  %27 = getelementptr inbounds [6 x %struct.SIZED_DATA], ptr @aes_cts128_vectors, i64 0, i64 %26
  %28 = getelementptr inbounds nuw %struct.SIZED_DATA, ptr %27, i32 0, i32 0
  %29 = load i64, ptr %28, align 16, !tbaa !14
  store i64 %29, ptr %9, align 8, !tbaa !9
  call void @llvm.lifetime.start.p0(i64 8, ptr %10) #5
  store ptr @cts128_test_input, ptr %10, align 8, !tbaa !11
  call void @llvm.lifetime.start.p0(i64 8, ptr %11) #5
  %30 = call ptr @cts128_encrypt_key_schedule()
  store ptr %30, ptr %11, align 8, !tbaa !18
  call void @llvm.lifetime.start.p0(i64 8, ptr %12) #5
  %31 = call ptr @cts128_decrypt_key_schedule()
  store ptr %31, ptr %12, align 8, !tbaa !18
  call void @llvm.lifetime.start.p0(i64 16, ptr %13) #5
  call void @llvm.lifetime.start.p0(i64 64, ptr %14) #5
  call void @llvm.lifetime.start.p0(i64 64, ptr %15) #5
  call void @llvm.lifetime.start.p0(i64 64, ptr %16) #5
  call void @llvm.lifetime.start.p0(i64 8, ptr %17) #5
  call void @llvm.lifetime.start.p0(i64 8, ptr %18) #5
  %32 = load ptr, ptr %4, align 8, !tbaa !17
  %33 = getelementptr inbounds nuw %struct.CTS128_FIXTURE, ptr %32, i32 0, i32 0
  %34 = load ptr, ptr %33, align 8, !tbaa !20
  %35 = load i64, ptr %9, align 8, !tbaa !9
  call void (ptr, i32, ptr, ...) @test_info(ptr noundef @.str.4, i32 noundef 198, ptr noundef @.str.5, ptr noundef %34, i64 noundef %35)
  %36 = load ptr, ptr %4, align 8, !tbaa !17
  %37 = getelementptr inbounds nuw %struct.CTS128_FIXTURE, ptr %36, i32 0, i32 1
  %38 = load ptr, ptr %37, align 8, !tbaa !22
  %39 = load ptr, ptr %8, align 8, !tbaa !11
  %40 = getelementptr inbounds [64 x i8], ptr %16, i64 0, i64 0
  %41 = load i64, ptr %9, align 8, !tbaa !9
  %42 = call i64 %38(ptr noundef %39, ptr noundef %40, i64 noundef %41)
  store i64 %42, ptr %17, align 8, !tbaa !9
  %43 = getelementptr inbounds [16 x i8], ptr %13, i64 0, i64 0
  %44 = load ptr, ptr %6, align 8, !tbaa !11
  %45 = load i64, ptr %7, align 8, !tbaa !9
  call void @llvm.memcpy.p0.p0.i64(ptr align 16 %43, ptr align 1 %44, i64 %45, i1 false)
  %46 = load ptr, ptr %4, align 8, !tbaa !17
  %47 = getelementptr inbounds nuw %struct.CTS128_FIXTURE, ptr %46, i32 0, i32 2
  %48 = load ptr, ptr %47, align 8, !tbaa !23
  %49 = load ptr, ptr %10, align 8, !tbaa !11
  %50 = getelementptr inbounds [64 x i8], ptr %15, i64 0, i64 0
  %51 = load i64, ptr %9, align 8, !tbaa !9
  %52 = load ptr, ptr %11, align 8, !tbaa !18
  %53 = getelementptr inbounds [16 x i8], ptr %13, i64 0, i64 0
  %54 = call i64 %48(ptr noundef %49, ptr noundef %50, i64 noundef %51, ptr noundef %52, ptr noundef %53, ptr noundef @AES_encrypt)
  %55 = load i64, ptr %9, align 8, !tbaa !9
  %56 = call i32 @test_size_t_eq(ptr noundef @.str.4, i32 noundef 206, ptr noundef @.str.6, ptr noundef @.str.7, i64 noundef %54, i64 noundef %55)
  %57 = icmp ne i32 %56, 0
  br i1 %57, label %58, label %75

58:                                               ; preds = %2
  %59 = getelementptr inbounds [64 x i8], ptr %15, i64 0, i64 0
  %60 = load i64, ptr %9, align 8, !tbaa !9
  %61 = getelementptr inbounds [64 x i8], ptr %16, i64 0, i64 0
  %62 = load i64, ptr %9, align 8, !tbaa !9
  %63 = call i32 @test_mem_eq(ptr noundef @.str.4, i32 noundef 207, ptr noundef @.str.8, ptr noundef @.str.9, ptr noundef %59, i64 noundef %60, ptr noundef %61, i64 noundef %62)
  %64 = icmp ne i32 %63, 0
  br i1 %64, label %65, label %75

65:                                               ; preds = %58
  %66 = getelementptr inbounds [16 x i8], ptr %13, i64 0, i64 0
  %67 = getelementptr inbounds [64 x i8], ptr %16, i64 0, i64 0
  %68 = load i64, ptr %9, align 8, !tbaa !9
  %69 = getelementptr inbounds nuw i8, ptr %67, i64 %68
  %70 = load i64, ptr %17, align 8, !tbaa !9
  %71 = sub i64 0, %70
  %72 = getelementptr inbounds i8, ptr %69, i64 %71
  %73 = call i32 @test_mem_eq(ptr noundef @.str.4, i32 noundef 208, ptr noundef @.str.10, ptr noundef @.str.11, ptr noundef %66, i64 noundef 16, ptr noundef %72, i64 noundef 16)
  %74 = icmp ne i32 %73, 0
  br i1 %74, label %76, label %75

75:                                               ; preds = %65, %58, %2
  store i32 0, ptr %3, align 4
  store i32 1, ptr %19, align 4
  br label %191

76:                                               ; preds = %65
  %77 = getelementptr inbounds [16 x i8], ptr %13, i64 0, i64 0
  %78 = load ptr, ptr %6, align 8, !tbaa !11
  %79 = load i64, ptr %7, align 8, !tbaa !9
  call void @llvm.memcpy.p0.p0.i64(ptr align 16 %77, ptr align 1 %78, i64 %79, i1 false)
  %80 = load ptr, ptr %4, align 8, !tbaa !17
  %81 = getelementptr inbounds nuw %struct.CTS128_FIXTURE, ptr %80, i32 0, i32 4
  %82 = load ptr, ptr %81, align 8, !tbaa !24
  %83 = getelementptr inbounds [64 x i8], ptr %15, i64 0, i64 0
  %84 = getelementptr inbounds [64 x i8], ptr %14, i64 0, i64 0
  %85 = load i64, ptr %9, align 8, !tbaa !9
  %86 = load ptr, ptr %12, align 8, !tbaa !18
  %87 = getelementptr inbounds [16 x i8], ptr %13, i64 0, i64 0
  %88 = call i64 %82(ptr noundef %83, ptr noundef %84, i64 noundef %85, ptr noundef %86, ptr noundef %87, ptr noundef @AES_decrypt)
  store i64 %88, ptr %18, align 8, !tbaa !9
  %89 = load i64, ptr %9, align 8, !tbaa !9
  %90 = load i64, ptr %18, align 8, !tbaa !9
  %91 = icmp eq i64 %89, %90
  br i1 %91, label %97, label %92

92:                                               ; preds = %76
  %93 = load i64, ptr %9, align 8, !tbaa !9
  %94 = add i64 %93, 16
  %95 = load i64, ptr %18, align 8, !tbaa !9
  %96 = icmp eq i64 %94, %95
  br label %97

97:                                               ; preds = %92, %76
  %98 = phi i1 [ true, %76 ], [ %96, %92 ]
  %99 = zext i1 %98 to i32
  %100 = icmp ne i32 %99, 0
  %101 = zext i1 %100 to i32
  %102 = call i32 @test_true(ptr noundef @.str.4, i32 noundef 216, ptr noundef @.str.12, i32 noundef %101)
  %103 = icmp ne i32 %102, 0
  br i1 %103, label %104, label %121

104:                                              ; preds = %97
  %105 = getelementptr inbounds [64 x i8], ptr %14, i64 0, i64 0
  %106 = load i64, ptr %9, align 8, !tbaa !9
  %107 = load ptr, ptr %10, align 8, !tbaa !11
  %108 = load i64, ptr %9, align 8, !tbaa !9
  %109 = call i32 @test_mem_eq(ptr noundef @.str.4, i32 noundef 217, ptr noundef @.str.13, ptr noundef @.str.14, ptr noundef %105, i64 noundef %106, ptr noundef %107, i64 noundef %108)
  %110 = icmp ne i32 %109, 0
  br i1 %110, label %111, label %121

111:                                              ; preds = %104
  %112 = getelementptr inbounds [16 x i8], ptr %13, i64 0, i64 0
  %113 = getelementptr inbounds [64 x i8], ptr %16, i64 0, i64 0
  %114 = load i64, ptr %9, align 8, !tbaa !9
  %115 = getelementptr inbounds nuw i8, ptr %113, i64 %114
  %116 = load i64, ptr %17, align 8, !tbaa !9
  %117 = sub i64 0, %116
  %118 = getelementptr inbounds i8, ptr %115, i64 %117
  %119 = call i32 @test_mem_eq(ptr noundef @.str.4, i32 noundef 218, ptr noundef @.str.10, ptr noundef @.str.11, ptr noundef %112, i64 noundef 16, ptr noundef %118, i64 noundef 16)
  %120 = icmp ne i32 %119, 0
  br i1 %120, label %122, label %121

121:                                              ; preds = %111, %104, %97
  store i32 0, ptr %3, align 4
  store i32 1, ptr %19, align 4
  br label %191

122:                                              ; preds = %111
  %123 = getelementptr inbounds [16 x i8], ptr %13, i64 0, i64 0
  %124 = load ptr, ptr %6, align 8, !tbaa !11
  %125 = load i64, ptr %7, align 8, !tbaa !9
  call void @llvm.memcpy.p0.p0.i64(ptr align 16 %123, ptr align 1 %124, i64 %125, i1 false)
  %126 = load ptr, ptr %4, align 8, !tbaa !17
  %127 = getelementptr inbounds nuw %struct.CTS128_FIXTURE, ptr %126, i32 0, i32 3
  %128 = load ptr, ptr %127, align 8, !tbaa !25
  %129 = load ptr, ptr %10, align 8, !tbaa !11
  %130 = getelementptr inbounds [64 x i8], ptr %15, i64 0, i64 0
  %131 = load i64, ptr %9, align 8, !tbaa !9
  %132 = load ptr, ptr %11, align 8, !tbaa !18
  %133 = getelementptr inbounds [16 x i8], ptr %13, i64 0, i64 0
  %134 = call i64 %128(ptr noundef %129, ptr noundef %130, i64 noundef %131, ptr noundef %132, ptr noundef %133, ptr noundef @AES_cbc_encrypt)
  %135 = load i64, ptr %9, align 8, !tbaa !9
  %136 = call i32 @test_size_t_eq(ptr noundef @.str.4, i32 noundef 226, ptr noundef @.str.15, ptr noundef @.str.7, i64 noundef %134, i64 noundef %135)
  %137 = icmp ne i32 %136, 0
  br i1 %137, label %138, label %155

138:                                              ; preds = %122
  %139 = getelementptr inbounds [64 x i8], ptr %15, i64 0, i64 0
  %140 = load i64, ptr %9, align 8, !tbaa !9
  %141 = getelementptr inbounds [64 x i8], ptr %16, i64 0, i64 0
  %142 = load i64, ptr %9, align 8, !tbaa !9
  %143 = call i32 @test_mem_eq(ptr noundef @.str.4, i32 noundef 227, ptr noundef @.str.8, ptr noundef @.str.9, ptr noundef %139, i64 noundef %140, ptr noundef %141, i64 noundef %142)
  %144 = icmp ne i32 %143, 0
  br i1 %144, label %145, label %155

145:                                              ; preds = %138
  %146 = getelementptr inbounds [16 x i8], ptr %13, i64 0, i64 0
  %147 = getelementptr inbounds [64 x i8], ptr %16, i64 0, i64 0
  %148 = load i64, ptr %9, align 8, !tbaa !9
  %149 = getelementptr inbounds nuw i8, ptr %147, i64 %148
  %150 = load i64, ptr %17, align 8, !tbaa !9
  %151 = sub i64 0, %150
  %152 = getelementptr inbounds i8, ptr %149, i64 %151
  %153 = call i32 @test_mem_eq(ptr noundef @.str.4, i32 noundef 228, ptr noundef @.str.10, ptr noundef @.str.11, ptr noundef %146, i64 noundef 16, ptr noundef %152, i64 noundef 16)
  %154 = icmp ne i32 %153, 0
  br i1 %154, label %156, label %155

155:                                              ; preds = %145, %138, %122
  store i32 0, ptr %3, align 4
  store i32 1, ptr %19, align 4
  br label %191

156:                                              ; preds = %145
  %157 = getelementptr inbounds [16 x i8], ptr %13, i64 0, i64 0
  %158 = load ptr, ptr %6, align 8, !tbaa !11
  %159 = load i64, ptr %7, align 8, !tbaa !9
  call void @llvm.memcpy.p0.p0.i64(ptr align 16 %157, ptr align 1 %158, i64 %159, i1 false)
  %160 = load ptr, ptr %4, align 8, !tbaa !17
  %161 = getelementptr inbounds nuw %struct.CTS128_FIXTURE, ptr %160, i32 0, i32 5
  %162 = load ptr, ptr %161, align 8, !tbaa !26
  %163 = getelementptr inbounds [64 x i8], ptr %15, i64 0, i64 0
  %164 = getelementptr inbounds [64 x i8], ptr %14, i64 0, i64 0
  %165 = load i64, ptr %9, align 8, !tbaa !9
  %166 = load ptr, ptr %12, align 8, !tbaa !18
  %167 = getelementptr inbounds [16 x i8], ptr %13, i64 0, i64 0
  %168 = call i64 %162(ptr noundef %163, ptr noundef %164, i64 noundef %165, ptr noundef %166, ptr noundef %167, ptr noundef @AES_cbc_encrypt)
  %169 = load i64, ptr %9, align 8, !tbaa !9
  %170 = call i32 @test_size_t_eq(ptr noundef @.str.4, i32 noundef 236, ptr noundef @.str.16, ptr noundef @.str.7, i64 noundef %168, i64 noundef %169)
  %171 = icmp ne i32 %170, 0
  br i1 %171, label %172, label %189

172:                                              ; preds = %156
  %173 = getelementptr inbounds [64 x i8], ptr %14, i64 0, i64 0
  %174 = load i64, ptr %9, align 8, !tbaa !9
  %175 = load ptr, ptr %10, align 8, !tbaa !11
  %176 = load i64, ptr %9, align 8, !tbaa !9
  %177 = call i32 @test_mem_eq(ptr noundef @.str.4, i32 noundef 237, ptr noundef @.str.13, ptr noundef @.str.14, ptr noundef %173, i64 noundef %174, ptr noundef %175, i64 noundef %176)
  %178 = icmp ne i32 %177, 0
  br i1 %178, label %179, label %189

179:                                              ; preds = %172
  %180 = getelementptr inbounds [16 x i8], ptr %13, i64 0, i64 0
  %181 = getelementptr inbounds [64 x i8], ptr %16, i64 0, i64 0
  %182 = load i64, ptr %9, align 8, !tbaa !9
  %183 = getelementptr inbounds nuw i8, ptr %181, i64 %182
  %184 = load i64, ptr %17, align 8, !tbaa !9
  %185 = sub i64 0, %184
  %186 = getelementptr inbounds i8, ptr %183, i64 %185
  %187 = call i32 @test_mem_eq(ptr noundef @.str.4, i32 noundef 238, ptr noundef @.str.10, ptr noundef @.str.11, ptr noundef %180, i64 noundef 16, ptr noundef %186, i64 noundef 16)
  %188 = icmp ne i32 %187, 0
  br i1 %188, label %190, label %189

189:                                              ; preds = %179, %172, %156
  store i32 0, ptr %3, align 4
  store i32 1, ptr %19, align 4
  br label %191

190:                                              ; preds = %179
  store i32 1, ptr %3, align 4
  store i32 1, ptr %19, align 4
  br label %191

191:                                              ; preds = %190, %189, %155, %121, %75
  call void @llvm.lifetime.end.p0(i64 8, ptr %18) #5
  call void @llvm.lifetime.end.p0(i64 8, ptr %17) #5
  call void @llvm.lifetime.end.p0(i64 64, ptr %16) #5
  call void @llvm.lifetime.end.p0(i64 64, ptr %15) #5
  call void @llvm.lifetime.end.p0(i64 64, ptr %14) #5
  call void @llvm.lifetime.end.p0(i64 16, ptr %13) #5
  call void @llvm.lifetime.end.p0(i64 8, ptr %12) #5
  call void @llvm.lifetime.end.p0(i64 8, ptr %11) #5
  call void @llvm.lifetime.end.p0(i64 8, ptr %10) #5
  call void @llvm.lifetime.end.p0(i64 8, ptr %9) #5
  call void @llvm.lifetime.end.p0(i64 8, ptr %8) #5
  call void @llvm.lifetime.end.p0(i64 8, ptr %7) #5
  call void @llvm.lifetime.end.p0(i64 8, ptr %6) #5
  %192 = load i32, ptr %3, align 4
  ret i32 %192
}