; Function Attrs: nounwind uwtable
define internal fastcc range(i32 0, 2) i32 @execute_cts128(ptr noundef readonly captures(none) %0, i32 noundef %1) unnamed_addr #0 {
  %3 = alloca [16 x i8], align 16
  %4 = alloca [64 x i8], align 16
  %5 = alloca [64 x i8], align 16
  %6 = alloca [64 x i8], align 16
  %7 = sext i32 %1 to i64
  %8 = getelementptr inbounds [6 x %struct.SIZED_DATA], ptr @aes_cts128_vectors, i64 0, i64 %7
  %9 = getelementptr inbounds nuw i8, ptr %8, i64 8
  %10 = load ptr, ptr %9, align 8, !tbaa !11
  %11 = load i64, ptr %8, align 16, !tbaa !13
  %.b.i = load i1, ptr @cts128_encrypt_key_schedule.init_key, align 4
  br i1 %.b.i, label %cts128_encrypt_key_schedule.exit, label %12

12:                                               ; preds = %2
  %13 = tail call i32 @AES_set_encrypt_key(ptr noundef nonnull @cts128_test_key, i32 noundef 128, ptr noundef nonnull @cts128_encrypt_key_schedule.ks) #6
  store i1 true, ptr @cts128_encrypt_key_schedule.init_key, align 4
  br label %cts128_encrypt_key_schedule.exit

cts128_encrypt_key_schedule.exit:                 ; preds = %2, %12
  %.b.i65 = load i1, ptr @cts128_decrypt_key_schedule.init_key, align 4
  br i1 %.b.i65, label %cts128_decrypt_key_schedule.exit, label %14

14:                                               ; preds = %cts128_encrypt_key_schedule.exit
  %15 = tail call i32 @AES_set_decrypt_key(ptr noundef nonnull @cts128_test_key, i32 noundef 128, ptr noundef nonnull @cts128_decrypt_key_schedule.ks) #6
  store i1 true, ptr @cts128_decrypt_key_schedule.init_key, align 4
  br label %cts128_decrypt_key_schedule.exit

cts128_decrypt_key_schedule.exit:                 ; preds = %cts128_encrypt_key_schedule.exit, %14
  call void @llvm.lifetime.start.p0(i64 16, ptr nonnull %3) #6
  call void @llvm.lifetime.start.p0(i64 64, ptr nonnull %4) #6
  call void @llvm.lifetime.start.p0(i64 64, ptr nonnull %5) #6
  call void @llvm.lifetime.start.p0(i64 64, ptr nonnull %6) #6
  %16 = load ptr, ptr %0, align 8, !tbaa !14
  tail call void (ptr, i32, ptr, ...) @test_info(ptr noundef nonnull @.str.4, i32 noundef 198, ptr noundef nonnull @.str.5, ptr noundef %16, i64 noundef %11) #6
  %17 = getelementptr inbounds nuw i8, ptr %0, i64 8
  %18 = load ptr, ptr %17, align 8, !tbaa !16
  %19 = call i64 %18(ptr noundef %10, ptr noundef nonnull %6, i64 noundef %11) #6
  call void @llvm.memset.p0.i64(ptr noundef nonnull align 16 dereferenceable(16) %3, i8 0, i64 16, i1 false)
  %20 = getelementptr inbounds nuw i8, ptr %0, i64 16
  %21 = load ptr, ptr %20, align 8, !tbaa !17
  %22 = call i64 %21(ptr noundef nonnull @cts128_test_input, ptr noundef nonnull %5, i64 noundef %11, ptr noundef nonnull @cts128_encrypt_key_schedule.ks, ptr noundef nonnull %3, ptr noundef nonnull @AES_encrypt) #6
  %23 = call i32 @test_size_t_eq(ptr noundef nonnull @.str.4, i32 noundef 206, ptr noundef nonnull @.str.6, ptr noundef nonnull @.str.7, i64 noundef %22, i64 noundef %11) #6
  %.not = icmp eq i32 %23, 0
  br i1 %.not, label %63, label %24

24:                                               ; preds = %cts128_decrypt_key_schedule.exit
  %25 = call i32 @test_mem_eq(ptr noundef nonnull @.str.4, i32 noundef 207, ptr noundef nonnull @.str.8, ptr noundef nonnull @.str.9, ptr noundef nonnull %5, i64 noundef %11, ptr noundef nonnull %6, i64 noundef %11) #6
  %.not54 = icmp eq i32 %25, 0
  br i1 %.not54, label %63, label %26

26:                                               ; preds = %24
  %27 = getelementptr inbounds nuw i8, ptr %6, i64 %11
  %28 = sub i64 0, %19
  %29 = getelementptr inbounds i8, ptr %27, i64 %28
  %30 = call i32 @test_mem_eq(ptr noundef nonnull @.str.4, i32 noundef 208, ptr noundef nonnull @.str.10, ptr noundef nonnull @.str.11, ptr noundef nonnull %3, i64 noundef 16, ptr noundef nonnull %29, i64 noundef 16) #6
  %.not55 = icmp eq i32 %30, 0
  br i1 %.not55, label %63, label %31

31:                                               ; preds = %26
  call void @llvm.memset.p0.i64(ptr noundef nonnull align 16 dereferenceable(16) %3, i8 0, i64 16, i1 false)
  %32 = getelementptr inbounds nuw i8, ptr %0, i64 32
  %33 = load ptr, ptr %32, align 8, !tbaa !18
  %34 = call i64 %33(ptr noundef nonnull %5, ptr noundef nonnull %4, i64 noundef %11, ptr noundef nonnull @cts128_decrypt_key_schedule.ks, ptr noundef nonnull %3, ptr noundef nonnull @AES_decrypt) #6
  %35 = icmp eq i64 %11, %34
  %36 = add i64 %11, 16
  %37 = icmp eq i64 %36, %34
  %38 = or i1 %35, %37
  %39 = zext i1 %38 to i32
  %40 = call i32 @test_true(ptr noundef nonnull @.str.4, i32 noundef 216, ptr noundef nonnull @.str.12, i32 noundef %39) #6
  %.not56 = icmp eq i32 %40, 0
  br i1 %.not56, label %63, label %41

41:                                               ; preds = %31
  %42 = call i32 @test_mem_eq(ptr noundef nonnull @.str.4, i32 noundef 217, ptr noundef nonnull @.str.13, ptr noundef nonnull @.str.14, ptr noundef nonnull %4, i64 noundef %11, ptr noundef nonnull @cts128_test_input, i64 noundef %11) #6
  %.not57 = icmp eq i32 %42, 0
  br i1 %.not57, label %63, label %43

43:                                               ; preds = %41
  %44 = call i32 @test_mem_eq(ptr noundef nonnull @.str.4, i32 noundef 218, ptr noundef nonnull @.str.10, ptr noundef nonnull @.str.11, ptr noundef nonnull %3, i64 noundef 16, ptr noundef nonnull %29, i64 noundef 16) #6
  %.not58 = icmp eq i32 %44, 0
  br i1 %.not58, label %63, label %45

45:                                               ; preds = %43
  call void @llvm.memset.p0.i64(ptr noundef nonnull align 16 dereferenceable(16) %3, i8 0, i64 16, i1 false)
  %46 = getelementptr inbounds nuw i8, ptr %0, i64 24
  %47 = load ptr, ptr %46, align 8, !tbaa !19
  %48 = call i64 %47(ptr noundef nonnull @cts128_test_input, ptr noundef nonnull %5, i64 noundef %11, ptr noundef nonnull @cts128_encrypt_key_schedule.ks, ptr noundef nonnull %3, ptr noundef nonnull @AES_cbc_encrypt) #6
  %49 = call i32 @test_size_t_eq(ptr noundef nonnull @.str.4, i32 noundef 226, ptr noundef nonnull @.str.15, ptr noundef nonnull @.str.7, i64 noundef %48, i64 noundef %11) #6
  %.not59 = icmp eq i32 %49, 0
  br i1 %.not59, label %63, label %50

50:                                               ; preds = %45
  %51 = call i32 @test_mem_eq(ptr noundef nonnull @.str.4, i32 noundef 227, ptr noundef nonnull @.str.8, ptr noundef nonnull @.str.9, ptr noundef nonnull %5, i64 noundef %11, ptr noundef nonnull %6, i64 noundef %11) #6
  %.not60 = icmp eq i32 %51, 0
  br i1 %.not60, label %63, label %52

52:                                               ; preds = %50
  %53 = call i32 @test_mem_eq(ptr noundef nonnull @.str.4, i32 noundef 228, ptr noundef nonnull @.str.10, ptr noundef nonnull @.str.11, ptr noundef nonnull %3, i64 noundef 16, ptr noundef nonnull %29, i64 noundef 16) #6
  %.not61 = icmp eq i32 %53, 0
  br i1 %.not61, label %63, label %54

54:                                               ; preds = %52
  call void @llvm.memset.p0.i64(ptr noundef nonnull align 16 dereferenceable(16) %3, i8 0, i64 16, i1 false)
  %55 = getelementptr inbounds nuw i8, ptr %0, i64 40
  %56 = load ptr, ptr %55, align 8, !tbaa !20
  %57 = call i64 %56(ptr noundef nonnull %5, ptr noundef nonnull %4, i64 noundef %11, ptr noundef nonnull @cts128_decrypt_key_schedule.ks, ptr noundef nonnull %3, ptr noundef nonnull @AES_cbc_encrypt) #6
  %58 = call i32 @test_size_t_eq(ptr noundef nonnull @.str.4, i32 noundef 236, ptr noundef nonnull @.str.16, ptr noundef nonnull @.str.7, i64 noundef %57, i64 noundef %11) #6
  %.not62 = icmp eq i32 %58, 0
  br i1 %.not62, label %63, label %59

59:                                               ; preds = %54
  %60 = call i32 @test_mem_eq(ptr noundef nonnull @.str.4, i32 noundef 237, ptr noundef nonnull @.str.13, ptr noundef nonnull @.str.14, ptr noundef nonnull %4, i64 noundef %11, ptr noundef nonnull @cts128_test_input, i64 noundef %11) #6
  %.not63 = icmp eq i32 %60, 0
  br i1 %.not63, label %63, label %61

61:                                               ; preds = %59
  %62 = call i32 @test_mem_eq(ptr noundef nonnull @.str.4, i32 noundef 238, ptr noundef nonnull @.str.10, ptr noundef nonnull @.str.11, ptr noundef nonnull %3, i64 noundef 16, ptr noundef nonnull %29, i64 noundef 16) #6
  %.not64 = icmp ne i32 %62, 0
  %spec.select = zext i1 %.not64 to i32
  br label %63

63:                                               ; preds = %61, %54, %59, %45, %50, %52, %31, %41, %43, %cts128_decrypt_key_schedule.exit, %24, %26
  %.0 = phi i32 [ 0, %26 ], [ 0, %24 ], [ 0, %cts128_decrypt_key_schedule.exit ], [ 0, %43 ], [ 0, %41 ], [ 0, %31 ], [ 0, %52 ], [ 0, %50 ], [ 0, %45 ], [ 0, %59 ], [ 0, %54 ], [ %spec.select, %61 ]
  call void @llvm.lifetime.end.p0(i64 64, ptr nonnull %6) #6
  call void @llvm.lifetime.end.p0(i64 64, ptr nonnull %5) #6
  call void @llvm.lifetime.end.p0(i64 64, ptr nonnull %4) #6
  call void @llvm.lifetime.end.p0(i64 16, ptr nonnull %3) #6
  ret i32 %.0
}